Certificate:
    Data:
        Version: 3 (0x2)
        Serial Number: 0 (0x0)
        Signature Algorithm: ecdsa-with-SHA256
        Issuer: C=JP, ST=Tokyo, L=Biddybuggy, O=Mariokart8, CN=Waluigi
        Validity
            Not Before: Jan 20 09:44:12 2021 GMT
            Not After : Jan 18 09:44:12 2031 GMT
        Subject: C=JP, ST=Tokyo, O=Mariokart8, CN=example.com
        Subject Public Key Info:
            Public Key Algorithm: id-ecPublicKey
                Public-Key: (256 bit)
                pub:
                    04:40:86:f9:20:50:22:26:96:9b:ed:35:10:bb:61:
                    c0:81:52:c5:88:0e:b5:5f:f7:b4:33:e5:21:10:b6:
                    43:da:eb:8a:9f:21:6c:2f:7a:c8:cb:05:fe:0a:25:
                    b1:ab:b6:a8:cf:5d:83:5d:3f:b5:c7:8b:e0:6e:6b:
                    56:28:4d:ac:a1
                ASN1 OID: prime256v1
                NIST CURVE: P-256
        X509v3 extensions:
            X509v3 Basic Constraints: 
                CA:FALSE
            X509v3 Key Usage: 
                Digital Signature, Non Repudiation, Key Encipherment
            X509v3 Subject Alternative Name: 
                DNS:example.com
    Signature Algorithm: ecdsa-with-SHA256
         30:45:02:21:00:a1:64:11:46:c7:fb:b5:99:ff:cf:b0:b2:3b:
         58:b7:33:88:d6:19:05:96:8e:45:da:c0:59:9a:99:05:1e:61:
         84:02:20:7f:a1:08:3b:1a:5b:ce:79:94:58:58:07:82:2a:51:
         76:21:1f:35:93:d7:13:0d:38:d9:c6:2f:ae:5d:ce:b0:ec
-----BEGIN CERTIFICATE-----
MIIBwjCCAWigAwIBAgIBADAKBggqhkjOPQQDAjBZMQswCQYDVQQGEwJKUDEOMAwG
A1UECAwFVG9reW8xEzARBgNVBAcMCkJpZGR5YnVnZ3kxEzARBgNVBAoMCk1hcmlv
a2FydDgxEDAOBgNVBAMMB1dhbHVpZ2kwHhcNMjEwMTIwMDk0NDEyWhcNMzEwMTE4
MDk0NDEyWjBIMQswCQYDVQQGEwJKUDEOMAwGA1UECAwFVG9reW8xEzARBgNVBAoM
Ck1hcmlva2FydDgxFDASBgNVBAMMC2V4YW1wbGUuY29tMFkwEwYHKoZIzj0CAQYI
KoZIzj0DAQcDQgAEQIb5IFAiJpab7TUQu2HAgVLFiA61X/e0M+UhELZD2uuKnyFs
L3rIywX+CiWxq7aoz12DXT+1x4vgbmtWKE2soaMyMDAwCQYDVR0TBAIwADALBgNV
HQ8EBAMCBeAwFgYDVR0RBA8wDYILZXhhbXBsZS5jb20wCgYIKoZIzj0EAwIDSAAw
RQIhAKFkEUbH+7WZ/8+wsjtYtzOI1hkFlo5F2sBZmpkFHmGEAiB/oQg7GlvOeZRY
WAeCKlF2IR81k9cTDTjZxi+uXc6w7A==
-----END CERTIFICATE-----
